; Function Attrs: mustprogress uwtable
define void @_ZN5ZXing8BitArray10bitwiseXORERKS0_(ptr nocapture noundef nonnull readonly align 8 dereferenceable(24) %0, ptr nocapture noundef nonnull readonly align 8 dereferenceable(24) %1) local_unnamed_addr #0 align 2 personality ptr @__gxx_personality_v0 {
  %3 = getelementptr inbounds i8, ptr %0, i64 8
  %4 = load ptr, ptr %3, align 8
  %5 = load ptr, ptr %0, align 8
  %6 = ptrtoint ptr %4 to i64
  %7 = ptrtoint ptr %5 to i64
  %8 = sub i64 %6, %7
  %9 = trunc i64 %8 to i32
  %10 = getelementptr inbounds i8, ptr %1, i64 8
  %11 = load ptr, ptr %10, align 8
  %12 = load ptr, ptr %1, align 8
  %13 = ptrtoint ptr %11 to i64
  %14 = ptrtoint ptr %12 to i64
  %15 = sub i64 %13, %14
  %16 = trunc i64 %15 to i32
  %.not = icmp eq i32 %9, %16
  br i1 %.not, label %.preheader, label %17

.preheader:                                       ; preds = %2
  %.not9 = icmp eq ptr %4, %5
  br i1 %.not9, label %._crit_edge, label %.lr.ph

17:                                               ; preds = %2
  %18 = tail call ptr @__cxa_allocate_exception(i64 16) #7
  invoke void @_ZNSt16invalid_argumentC1EPKc(ptr noundef nonnull align 8 dereferenceable(16) %18, ptr noundef nonnull @.str)
          to label %19 unwind label %20

19:                                               ; preds = %17
  tail call void @__cxa_throw(ptr nonnull %18, ptr nonnull @_ZTISt16invalid_argument, ptr nonnull @_ZNSt16invalid_argumentD1Ev) #8
  unreachable

20:                                               ; preds = %17
  %21 = landingpad { ptr, i32 }
          cleanup
  tail call void @__cxa_free_exception(ptr %18) #7
  resume { ptr, i32 } %21

.lr.ph:                                           ; preds = %.preheader, %.lr.ph
  %22 = phi ptr [ %31, %.lr.ph ], [ %5, %.preheader ]
  %.08 = phi i64 [ %29, %.lr.ph ], [ 0, %.preheader ]
  %23 = load ptr, ptr %1, align 8
  %24 = getelementptr inbounds i8, ptr %23, i64 %.08
  %25 = load i8, ptr %24, align 1
  %26 = getelementptr inbounds i8, ptr %22, i64 %.08
  %27 = load i8, ptr %26, align 1
  %28 = xor i8 %27, %25
  store i8 %28, ptr %26, align 1
  %29 = add nuw i64 %.08, 1
  %30 = load ptr, ptr %3, align 8
  %31 = load ptr, ptr %0, align 8
  %32 = ptrtoint ptr %30 to i64
  %33 = ptrtoint ptr %31 to i64
  %34 = sub i64 %32, %33
  %35 = icmp ult i64 %29, %34
  br i1 %35, label %.lr.ph, label %._crit_edge, !llvm.loop !4

._crit_edge:                                      ; preds = %.lr.ph, %.preheader
  ret void
}